target datalayout = "e-m:e-p270:32:32-p271:32:32-p272:64:64-i64:64-i128:128-f80:128-n8:16:32:64-S128"
target triple = "x86_64-pc-linux-gnu"

%struct.AVCodecContext = type { ptr, i32, i32, ptr, i32, i32, ptr, ptr, ptr, i64, i32, i32, ptr, i32, %struct.AVRational, %struct.AVRational, %struct.AVRational, i32, i32, i32, i32, i32, %struct.AVRational, i32, i32, i32, i32, i32, i32, i32, i32, i32, i32, i32, ptr, ptr, i32, float, float, float, float, float, float, float, float, float, i32, i32, i32, i32, i32, i32, i32, i32, i32, i32, i32, i32, ptr, ptr, ptr, i32, i32, i32, i32, i32, i32, i32, i32, i32, i32, %struct.AVChannelLayout, i32, i32, i32, i32, i32, i32, i32, i32, ptr, i32, i32, i32, float, float, i32, i32, i32, i32, i32, ptr, i64, i64, float, float, i32, i32, ptr, ptr, i32, i32, i32, i32, i32, ptr, ptr, ptr, ptr, i32, i32, [8 x i64], i32, i32, i32, i32, i32, i32, i32, ptr, ptr, i32, i32, i32, i32, i32, i32, i32, i32, i32, i32, ptr, ptr, i32, i32, ptr, ptr, ptr, ptr, i32, i32, i64, i32, i32, i64, ptr, i64, ptr, i32, ptr, i32 }
%struct.AVRational = type { i32, i32 }
%struct.AVChannelLayout = type { i32, i32, %union.anon.0, ptr }
%union.anon.0 = type { i64 }
%struct.G729Context = type { %struct.AudioDSPContext, ptr }
%struct.AudioDSPContext = type { ptr, ptr, ptr }
%struct.G729ChannelContext = type { [234 x i16], ptr, i32, [5 x [10 x i16]], [5 x ptr], [10 x i16], [2 x [10 x i16]], [2 x ptr], [4 x i16], [10 x i16], [192 x i16], [50 x i16], [50 x i16], [6 x i16], [2 x i16], i16, i16, i16, i16, i32, i16, i32, [2 x i32], [2 x i16] }

@.str.4 = private unnamed_addr constant [62 x i8] c"Only mono and stereo are supported (requested channels: %d).\0A\00", align 1
@lsp_init = internal constant [10 x i16] [i16 30000, i16 26000, i16 21000, i16 15000, i16 8000, i16 0, i16 -8000, i16 -15000, i16 -21000, i16 -26000], align 16

; Function Attrs: cold nounwind optsize uwtable
define internal i32 @decoder_init(ptr noundef %0) #0 {
  %2 = alloca i32, align 4
  %3 = alloca ptr, align 8
  %4 = alloca ptr, align 8
  %5 = alloca ptr, align 8
  %6 = alloca i32, align 4
  %7 = alloca i32, align 4
  %8 = alloca i32, align 4
  %9 = alloca i32, align 4
  %10 = alloca i32, align 4
  store ptr %0, ptr %3, align 8, !tbaa !4
  call void @llvm.lifetime.start.p0(i64 8, ptr %4) #9
  %11 = load ptr, ptr %3, align 8, !tbaa !4
  %12 = getelementptr inbounds nuw %struct.AVCodecContext, ptr %11, i32 0, i32 6
  %13 = load ptr, ptr %12, align 8, !tbaa !9
  store ptr %13, ptr %4, align 8, !tbaa !29
  call void @llvm.lifetime.start.p0(i64 8, ptr %5) #9
  call void @llvm.lifetime.start.p0(i64 4, ptr %6) #9
  %14 = load ptr, ptr %3, align 8, !tbaa !4
  %15 = getelementptr inbounds nuw %struct.AVCodecContext, ptr %14, i32 0, i32 71
  %16 = getelementptr inbounds nuw %struct.AVChannelLayout, ptr %15, i32 0, i32 1
  %17 = load i32, ptr %16, align 4, !tbaa !30
  store i32 %17, ptr %6, align 4, !tbaa !31
  call void @llvm.lifetime.start.p0(i64 4, ptr %7) #9
  call void @llvm.lifetime.start.p0(i64 4, ptr %8) #9
  call void @llvm.lifetime.start.p0(i64 4, ptr %9) #9
  %18 = load i32, ptr %6, align 4, !tbaa !31
  %19 = icmp slt i32 %18, 1
  br i1 %19, label %23, label %20

20:                                               ; preds = %1
  %21 = load i32, ptr %6, align 4, !tbaa !31
  %22 = icmp sgt i32 %21, 2
  br i1 %22, label %23, label %26

23:                                               ; preds = %20, %1
  %24 = load ptr, ptr %3, align 8, !tbaa !4
  %25 = load i32, ptr %6, align 4, !tbaa !31
  call void (ptr, i32, ptr, ...) @av_log(ptr noundef %24, i32 noundef 16, ptr noundef @.str.4, i32 noundef %25)
  store i32 -22, ptr %2, align 4
  store i32 1, ptr %10, align 4
  br label %140

26:                                               ; preds = %20
  %27 = load ptr, ptr %3, align 8, !tbaa !4
  %28 = getelementptr inbounds nuw %struct.AVCodecContext, ptr %27, i32 0, i32 70
  store i32 6, ptr %28, align 4, !tbaa !32
  %29 = load ptr, ptr %3, align 8, !tbaa !4
  %30 = getelementptr inbounds nuw %struct.AVCodecContext, ptr %29, i32 0, i32 72
  store i32 80, ptr %30, align 8, !tbaa !33
  %31 = load i32, ptr %6, align 4, !tbaa !31
  %32 = sext i32 %31 to i64
  %33 = mul i64 1368, %32
  %34 = call noalias ptr @av_mallocz(i64 noundef %33)
  %35 = load ptr, ptr %4, align 8, !tbaa !29
  %36 = getelementptr inbounds nuw %struct.G729Context, ptr %35, i32 0, i32 1
  store ptr %34, ptr %36, align 8, !tbaa !34
  store ptr %34, ptr %5, align 8, !tbaa !29
  %37 = load ptr, ptr %5, align 8, !tbaa !29
  %38 = icmp ne ptr %37, null
  br i1 %38, label %40, label %39

39:                                               ; preds = %26
  store i32 -12, ptr %2, align 4
  store i32 1, ptr %10, align 4
  br label %140

40:                                               ; preds = %26
  store i32 0, ptr %7, align 4, !tbaa !31
  br label %41

41:                                               ; preds = %131, %40
  %42 = load i32, ptr %7, align 4, !tbaa !31
  %43 = load i32, ptr %6, align 4, !tbaa !31
  %44 = icmp slt i32 %42, %43
  br i1 %44, label %45, label %134

45:                                               ; preds = %41
  %46 = load ptr, ptr %5, align 8, !tbaa !29
  %47 = getelementptr inbounds nuw %struct.G729ChannelContext, ptr %46, i32 0, i32 19
  store i32 16384, ptr %47, align 4, !tbaa !37
  store i32 0, ptr %9, align 4, !tbaa !31
  br label %48

48:                                               ; preds = %85, %45
  %49 = load i32, ptr %9, align 4, !tbaa !31
  %50 = icmp slt i32 %49, 5
  br i1 %50, label %51, label %88

51:                                               ; preds = %48
  %52 = load ptr, ptr %5, align 8, !tbaa !29
  %53 = getelementptr inbounds nuw %struct.G729ChannelContext, ptr %52, i32 0, i32 3
  %54 = load i32, ptr %9, align 4, !tbaa !31
  %55 = sext i32 %54 to i64
  %56 = getelementptr inbounds [5 x [10 x i16]], ptr %53, i64 0, i64 %55
  %57 = getelementptr inbounds [10 x i16], ptr %56, i64 0, i64 0
  %58 = load ptr, ptr %5, align 8, !tbaa !29
  %59 = getelementptr inbounds nuw %struct.G729ChannelContext, ptr %58, i32 0, i32 4
  %60 = load i32, ptr %9, align 4, !tbaa !31
  %61 = sext i32 %60 to i64
  %62 = getelementptr inbounds [5 x ptr], ptr %59, i64 0, i64 %61
  store ptr %57, ptr %62, align 8, !tbaa !40
  store i32 1, ptr %8, align 4, !tbaa !31
  br label %63

63:                                               ; preds = %81, %51
  %64 = load i32, ptr %8, align 4, !tbaa !31
  %65 = icmp slt i32 %64, 11
  br i1 %65, label %66, label %84

66:                                               ; preds = %63
  %67 = load i32, ptr %8, align 4, !tbaa !31
  %68 = mul nsw i32 18717, %67
  %69 = ashr i32 %68, 3
  %70 = trunc i32 %69 to i16
  %71 = load ptr, ptr %5, align 8, !tbaa !29
  %72 = getelementptr inbounds nuw %struct.G729ChannelContext, ptr %71, i32 0, i32 4
  %73 = load i32, ptr %9, align 4, !tbaa !31
  %74 = sext i32 %73 to i64
  %75 = getelementptr inbounds [5 x ptr], ptr %72, i64 0, i64 %74
  %76 = load ptr, ptr %75, align 8, !tbaa !40
  %77 = load i32, ptr %8, align 4, !tbaa !31
  %78 = sub nsw i32 %77, 1
  %79 = sext i32 %78 to i64
  %80 = getelementptr inbounds i16, ptr %76, i64 %79
  store i16 %70, ptr %80, align 2, !tbaa !41
  br label %81

81:                                               ; preds = %66
  %82 = load i32, ptr %8, align 4, !tbaa !31
  %83 = add nsw i32 %82, 1
  store i32 %83, ptr %8, align 4, !tbaa !31
  br label %63, !llvm.loop !42

84:                                               ; preds = %63
  br label %85

85:                                               ; preds = %84
  %86 = load i32, ptr %9, align 4, !tbaa !31
  %87 = add nsw i32 %86, 1
  store i32 %87, ptr %9, align 4, !tbaa !31
  br label %48, !llvm.loop !44

88:                                               ; preds = %48
  %89 = load ptr, ptr %5, align 8, !tbaa !29
  %90 = getelementptr inbounds nuw %struct.G729ChannelContext, ptr %89, i32 0, i32 6
  %91 = getelementptr inbounds [2 x [10 x i16]], ptr %90, i64 0, i64 0
  %92 = getelementptr inbounds [10 x i16], ptr %91, i64 0, i64 0
  %93 = load ptr, ptr %5, align 8, !tbaa !29
  %94 = getelementptr inbounds nuw %struct.G729ChannelContext, ptr %93, i32 0, i32 7
  %95 = getelementptr inbounds [2 x ptr], ptr %94, i64 0, i64 0
  store ptr %92, ptr %95, align 8, !tbaa !40
  %96 = load ptr, ptr %5, align 8, !tbaa !29
  %97 = getelementptr inbounds nuw %struct.G729ChannelContext, ptr %96, i32 0, i32 6
  %98 = getelementptr inbounds [2 x [10 x i16]], ptr %97, i64 0, i64 1
  %99 = getelementptr inbounds [10 x i16], ptr %98, i64 0, i64 0
  %100 = load ptr, ptr %5, align 8, !tbaa !29
  %101 = getelementptr inbounds nuw %struct.G729ChannelContext, ptr %100, i32 0, i32 7
  %102 = getelementptr inbounds [2 x ptr], ptr %101, i64 0, i64 1
  store ptr %99, ptr %102, align 8, !tbaa !40
  %103 = load ptr, ptr %5, align 8, !tbaa !29
  %104 = getelementptr inbounds nuw %struct.G729ChannelContext, ptr %103, i32 0, i32 7
  %105 = getelementptr inbounds [2 x ptr], ptr %104, i64 0, i64 0
  %106 = load ptr, ptr %105, align 8, !tbaa !40
  call void @llvm.memcpy.p0.p0.i64(ptr align 2 %106, ptr align 16 @lsp_init, i64 20, i1 false)
  %107 = load ptr, ptr %5, align 8, !tbaa !29
  %108 = getelementptr inbounds nuw %struct.G729ChannelContext, ptr %107, i32 0, i32 0
  %109 = getelementptr inbounds [234 x i16], ptr %108, i64 0, i64 154
  %110 = load ptr, ptr %5, align 8, !tbaa !29
  %111 = getelementptr inbounds nuw %struct.G729ChannelContext, ptr %110, i32 0, i32 1
  store ptr %109, ptr %111, align 8, !tbaa !45
  %112 = load ptr, ptr %5, align 8, !tbaa !29
  %113 = getelementptr inbounds nuw %struct.G729ChannelContext, ptr %112, i32 0, i32 2
  store i32 20, ptr %113, align 8, !tbaa !46
  %114 = load ptr, ptr %5, align 8, !tbaa !29
  %115 = getelementptr inbounds nuw %struct.G729ChannelContext, ptr %114, i32 0, i32 20
  store i16 21845, ptr %115, align 8, !tbaa !47
  store i32 0, ptr %8, align 4, !tbaa !31
  br label %116

116:                                              ; preds = %125, %88
  %117 = load i32, ptr %8, align 4, !tbaa !31
  %118 = icmp slt i32 %117, 4
  br i1 %118, label %119, label %128

119:                                              ; preds = %116
  %120 = load ptr, ptr %5, align 8, !tbaa !29
  %121 = getelementptr inbounds nuw %struct.G729ChannelContext, ptr %120, i32 0, i32 8
  %122 = load i32, ptr %8, align 4, !tbaa !31
  %123 = sext i32 %122 to i64
  %124 = getelementptr inbounds [4 x i16], ptr %121, i64 0, i64 %123
  store i16 -14336, ptr %124, align 2, !tbaa !41
  br label %125

125:                                              ; preds = %119
  %126 = load i32, ptr %8, align 4, !tbaa !31
  %127 = add nsw i32 %126, 1
  store i32 %127, ptr %8, align 4, !tbaa !31
  br label %116, !llvm.loop !48

128:                                              ; preds = %116
  %129 = load ptr, ptr %5, align 8, !tbaa !29
  %130 = getelementptr inbounds nuw %struct.G729ChannelContext, ptr %129, i32 1
  store ptr %130, ptr %5, align 8, !tbaa !29
  br label %131

131:                                              ; preds = %128
  %132 = load i32, ptr %7, align 4, !tbaa !31
  %133 = add nsw i32 %132, 1
  store i32 %133, ptr %7, align 4, !tbaa !31
  br label %41, !llvm.loop !49

134:                                              ; preds = %41
  %135 = load ptr, ptr %4, align 8, !tbaa !29
  %136 = getelementptr inbounds nuw %struct.G729Context, ptr %135, i32 0, i32 0
  call void @ff_audiodsp_init(ptr noundef %136)
  %137 = load ptr, ptr %4, align 8, !tbaa !29
  %138 = getelementptr inbounds nuw %struct.G729Context, ptr %137, i32 0, i32 0
  %139 = getelementptr inbounds nuw %struct.AudioDSPContext, ptr %138, i32 0, i32 0
  store ptr @scalarproduct_int16_c, ptr %139, align 8, !tbaa !50
  store i32 0, ptr %2, align 4
  store i32 1, ptr %10, align 4
  br label %140

140:                                              ; preds = %134, %39, %23
  call void @llvm.lifetime.end.p0(i64 4, ptr %9) #9
  call void @llvm.lifetime.end.p0(i64 4, ptr %8) #9
  call void @llvm.lifetime.end.p0(i64 4, ptr %7) #9
  call void @llvm.lifetime.end.p0(i64 4, ptr %6) #9
  call void @llvm.lifetime.end.p0(i64 8, ptr %5) #9
  call void @llvm.lifetime.end.p0(i64 8, ptr %4) #9
  %141 = load i32, ptr %2, align 4
  ret i32 %141
}