; Function Attrs: cold nounwind optsize uwtable
define internal range(i32 -22, 1) i32 @decoder_init(ptr noundef %0) #0 {
  %2 = getelementptr inbounds nuw i8, ptr %0, i64 32
  %3 = load ptr, ptr %2, align 8, !tbaa !4
  %4 = getelementptr inbounds nuw i8, ptr %0, i64 356
  %5 = load i32, ptr %4, align 4, !tbaa !27
  %6 = add i32 %5, -3
  %or.cond = icmp ult i32 %6, -2
  br i1 %or.cond, label %7, label %8

7:                                                ; preds = %1
  tail call void (ptr, i32, ptr, ...) @av_log(ptr noundef nonnull %0, i32 noundef 16, ptr noundef nonnull @.str.4, i32 noundef %5) #9
  br label %41

8:                                                ; preds = %1
  %9 = getelementptr inbounds nuw i8, ptr %0, i64 348
  store i32 6, ptr %9, align 4, !tbaa !28
  %10 = getelementptr inbounds nuw i8, ptr %0, i64 376
  store i32 80, ptr %10, align 8, !tbaa !29
  %narrow = mul nuw nsw i32 %5, 1368
  %11 = zext nneg i32 %narrow to i64
  %12 = tail call noalias ptr @av_mallocz(i64 noundef %11) #9
  %13 = getelementptr inbounds nuw i8, ptr %3, i64 24
  store ptr %12, ptr %13, align 8, !tbaa !30
  %.not = icmp eq ptr %12, null
  br i1 %.not, label %41, label %.lr.ph

.lr.ph:                                           ; preds = %8, %38
  %.04554 = phi i32 [ %40, %38 ], [ 0, %8 ]
  %.04753 = phi ptr [ %39, %38 ], [ %12, %8 ]
  %14 = getelementptr inbounds nuw i8, ptr %.04753, i64 1340
  store i32 16384, ptr %14, align 4, !tbaa !33
  %15 = getelementptr inbounds nuw i8, ptr %.04753, i64 484
  %16 = getelementptr inbounds nuw i8, ptr %.04753, i64 584
  br label %17

17:                                               ; preds = %.lr.ph, %25
  %indvars.iv56 = phi i64 [ 0, %.lr.ph ], [ %indvars.iv.next57, %25 ]
  %18 = getelementptr inbounds nuw [5 x [10 x i16]], ptr %15, i64 0, i64 %indvars.iv56
  %19 = getelementptr inbounds nuw [5 x ptr], ptr %16, i64 0, i64 %indvars.iv56
  store ptr %18, ptr %19, align 8, !tbaa !36
  %invariant.gep = getelementptr i8, ptr %18, i64 -2
  br label %20

20:                                               ; preds = %17, %20
  %indvars.iv = phi i64 [ 1, %17 ], [ %indvars.iv.next, %20 ]
  %21 = trunc i64 %indvars.iv to i32
  %22 = mul i32 %21, 18717
  %23 = lshr i32 %22, 3
  %24 = trunc nuw nsw i32 %23 to i16
  %gep = getelementptr i16, ptr %invariant.gep, i64 %indvars.iv
  store i16 %24, ptr %gep, align 2, !tbaa !37
  %indvars.iv.next = add nuw nsw i64 %indvars.iv, 1
  %exitcond.not = icmp eq i64 %indvars.iv.next, 11
  br i1 %exitcond.not, label %25, label %20, !llvm.loop !38

25:                                               ; preds = %20
  %indvars.iv.next57 = add nuw nsw i64 %indvars.iv56, 1
  %exitcond59.not = icmp eq i64 %indvars.iv.next57, 5
  br i1 %exitcond59.not, label %26, label %17, !llvm.loop !40

26:                                               ; preds = %25
  %27 = getelementptr inbounds nuw i8, ptr %.04753, i64 644
  %28 = getelementptr inbounds nuw i8, ptr %.04753, i64 688
  store ptr %27, ptr %28, align 8, !tbaa !36
  %29 = getelementptr inbounds nuw i8, ptr %.04753, i64 664
  %30 = getelementptr inbounds nuw i8, ptr %.04753, i64 696
  store ptr %29, ptr %30, align 8, !tbaa !36
  tail call void @llvm.memcpy.p0.p0.i64(ptr noundef nonnull align 2 dereferenceable(20) %27, ptr noundef nonnull align 16 dereferenceable(20) @lsp_init, i64 20, i1 false)
  %31 = getelementptr inbounds nuw i8, ptr %.04753, i64 308
  %32 = getelementptr inbounds nuw i8, ptr %.04753, i64 472
  store ptr %31, ptr %32, align 8, !tbaa !41
  %33 = getelementptr inbounds nuw i8, ptr %.04753, i64 480
  store i32 20, ptr %33, align 8, !tbaa !42
  %34 = getelementptr inbounds nuw i8, ptr %.04753, i64 1344
  store i16 21845, ptr %34, align 8, !tbaa !43
  %35 = getelementptr inbounds nuw i8, ptr %.04753, i64 704
  br label %36

36:                                               ; preds = %26, %36
  %indvars.iv60 = phi i64 [ 0, %26 ], [ %indvars.iv.next61, %36 ]
  %37 = getelementptr inbounds nuw [4 x i16], ptr %35, i64 0, i64 %indvars.iv60
  store i16 -14336, ptr %37, align 2, !tbaa !37
  %indvars.iv.next61 = add nuw nsw i64 %indvars.iv60, 1
  %exitcond63.not = icmp eq i64 %indvars.iv.next61, 4
  br i1 %exitcond63.not, label %38, label %36, !llvm.loop !44

38:                                               ; preds = %36
  %39 = getelementptr inbounds nuw i8, ptr %.04753, i64 1368
  %40 = add nuw nsw i32 %.04554, 1
  %exitcond64.not = icmp eq i32 %40, %5
  br i1 %exitcond64.not, label %._crit_edge, label %.lr.ph, !llvm.loop !45

._crit_edge:                                      ; preds = %38
  tail call void @ff_audiodsp_init(ptr noundef %3) #9
  store ptr @scalarproduct_int16_c, ptr %3, align 8, !tbaa !46
  br label %41

41:                                               ; preds = %8, %._crit_edge, %7
  %.046 = phi i32 [ -22, %7 ], [ 0, %._crit_edge ], [ -12, %8 ]
  ret i32 %.046
}